target datalayout = "e-m:e-p270:32:32-p271:32:32-p272:64:64-i64:64-i128:128-f80:128-n8:16:32:64-S128"
target triple = "x86_64-pc-linux-gnu"

%struct.slurmdb_hierarchical_rec_t = type { ptr, ptr, ptr, ptr }

; Function Attrs: nounwind uwtable
define internal i32 @_sort_slurmdb_hierarchical_rec_list(ptr noundef %0) #0 {
  %2 = alloca i32, align 4
  %3 = alloca ptr, align 8
  %4 = alloca ptr, align 8
  %5 = alloca ptr, align 8
  %6 = alloca i32, align 4
  store ptr %0, ptr %3, align 8
  call void @llvm.lifetime.start.p0(i64 8, ptr %4) #10
  store ptr null, ptr %4, align 8
  call void @llvm.lifetime.start.p0(i64 8, ptr %5) #10
  %7 = load ptr, ptr %3, align 8
  %8 = call i32 @list_count(ptr noundef %7)
  %9 = icmp ne i32 %8, 0
  br i1 %9, label %11, label %10

10:                                               ; preds = %1
  store i32 0, ptr %2, align 4
  store i32 1, ptr %6, align 4
  br label %33

11:                                               ; preds = %1
  %12 = load ptr, ptr %3, align 8
  call void @list_sort(ptr noundef %12, ptr noundef @_sort_children_list)
  %13 = load ptr, ptr %3, align 8
  %14 = call ptr @list_iterator_create(ptr noundef %13)
  store ptr %14, ptr %5, align 8
  br label %15

15:                                               ; preds = %30, %11
  %16 = load ptr, ptr %5, align 8
  %17 = call ptr @list_next(ptr noundef %16)
  store ptr %17, ptr %4, align 8
  %18 = icmp ne ptr %17, null
  br i1 %18, label %19, label %31

19:                                               ; preds = %15
  %20 = load ptr, ptr %4, align 8
  %21 = getelementptr inbounds nuw %struct.slurmdb_hierarchical_rec_t, ptr %20, i32 0, i32 3
  %22 = load ptr, ptr %21, align 8
  %23 = call i32 @list_count(ptr noundef %22)
  %24 = icmp ne i32 %23, 0
  br i1 %24, label %25, label %30

25:                                               ; preds = %19
  %26 = load ptr, ptr %4, align 8
  %27 = getelementptr inbounds nuw %struct.slurmdb_hierarchical_rec_t, ptr %26, i32 0, i32 3
  %28 = load ptr, ptr %27, align 8
  %29 = call i32 @_sort_slurmdb_hierarchical_rec_list(ptr noundef %28)
  br label %30

30:                                               ; preds = %25, %19
  br label %15, !llvm.loop !30

31:                                               ; preds = %15
  %32 = load ptr, ptr %5, align 8
  call void @list_iterator_destroy(ptr noundef %32)
  store i32 0, ptr %2, align 4
  store i32 1, ptr %6, align 4
  br label %33

33:                                               ; preds = %31, %10
  call void @llvm.lifetime.end.p0(i64 8, ptr %5) #10
  call void @llvm.lifetime.end.p0(i64 8, ptr %4) #10
  %34 = load i32, ptr %2, align 4
  ret i32 %34
}