; Function Attrs: nounwind uwtable
define internal fastcc void @_sort_slurmdb_hierarchical_rec_list(ptr noundef %0) unnamed_addr #0 {
  %2 = tail call i32 @list_count(ptr noundef %0) #19
  %.not = icmp eq i32 %2, 0
  br i1 %.not, label %14, label %3

3:                                                ; preds = %1
  tail call void @list_sort(ptr noundef %0, ptr noundef nonnull @_sort_children_list) #19
  %4 = tail call ptr @list_iterator_create(ptr noundef %0) #19
  %5 = tail call ptr @list_next(ptr noundef %4) #19
  %.not79 = icmp eq ptr %5, null
  br i1 %.not79, label %._crit_edge, label %.lr.ph

.lr.ph:                                           ; preds = %3, %12
  %6 = phi ptr [ %13, %12 ], [ %5, %3 ]
  %7 = getelementptr inbounds nuw i8, ptr %6, i64 24
  %8 = load ptr, ptr %7, align 8
  %9 = tail call i32 @list_count(ptr noundef %8) #19
  %.not8 = icmp eq i32 %9, 0
  br i1 %.not8, label %12, label %10

10:                                               ; preds = %.lr.ph
  %11 = load ptr, ptr %7, align 8
  tail call fastcc void @_sort_slurmdb_hierarchical_rec_list(ptr noundef %11)
  br label %12

12:                                               ; preds = %10, %.lr.ph
  %13 = tail call ptr @list_next(ptr noundef %4) #19
  %.not7 = icmp eq ptr %13, null
  br i1 %.not7, label %._crit_edge, label %.lr.ph, !llvm.loop !28

._crit_edge:                                      ; preds = %12, %3
  tail call void @list_iterator_destroy(ptr noundef %4) #19
  br label %14

14:                                               ; preds = %1, %._crit_edge
  ret void
}